; Function Attrs: nounwind uwtable
define hidden i32 @exr_attr_opaquedata_set_unpacked(ptr noundef %0, ptr noundef %1, ptr noundef %2, i32 noundef %3) local_unnamed_addr #0 {
  %.not = icmp eq ptr %0, null
  br i1 %.not, label %37, label %5

5:                                                ; preds = %4
  %.not31 = icmp eq ptr %1, null
  br i1 %.not31, label %6, label %10

6:                                                ; preds = %5
  %7 = getelementptr inbounds nuw i8, ptr %0, i64 56
  %8 = load ptr, ptr %7, align 8, !tbaa !26
  %9 = tail call i32 %8(ptr noundef nonnull %0, i32 noundef 3) #4
  br label %37

10:                                               ; preds = %5
  %11 = icmp slt i32 %3, 0
  br i1 %11, label %12, label %16

12:                                               ; preds = %10
  %13 = getelementptr inbounds nuw i8, ptr %0, i64 72
  %14 = load ptr, ptr %13, align 8, !tbaa !22
  %15 = tail call i32 (ptr, i32, ptr, ...) %14(ptr noundef nonnull %0, i32 noundef 3, ptr noundef nonnull @.str.6, i32 noundef %3) #4
  br label %37

16:                                               ; preds = %10
  %17 = getelementptr inbounds nuw i8, ptr %1, i64 24
  %18 = load ptr, ptr %17, align 8, !tbaa !30
  %.not32 = icmp eq ptr %18, null
  br i1 %.not32, label %25, label %19

19:                                               ; preds = %16
  %20 = getelementptr inbounds nuw i8, ptr %1, i64 48
  %21 = load ptr, ptr %20, align 8, !tbaa !31
  %.not33 = icmp eq ptr %21, null
  br i1 %.not33, label %25, label %22

22:                                               ; preds = %19
  %23 = getelementptr inbounds nuw i8, ptr %1, i64 4
  %24 = load i32, ptr %23, align 4, !tbaa !32
  tail call void %21(ptr noundef nonnull %0, ptr noundef nonnull %18, i32 noundef %24) #4
  br label %25

25:                                               ; preds = %19, %22, %16
  store ptr %2, ptr %17, align 8, !tbaa !30
  %26 = getelementptr inbounds nuw i8, ptr %1, i64 4
  store i32 %3, ptr %26, align 4, !tbaa !32
  %27 = getelementptr inbounds nuw i8, ptr %1, i64 16
  %28 = load ptr, ptr %27, align 8, !tbaa !24
  %.not34 = icmp eq ptr %28, null
  br i1 %.not34, label %37, label %29

29:                                               ; preds = %25
  %30 = getelementptr inbounds nuw i8, ptr %1, i64 8
  %31 = load i32, ptr %30, align 8, !tbaa !28
  %32 = icmp sgt i32 %31, 0
  br i1 %32, label %33, label %36

33:                                               ; preds = %29
  %34 = getelementptr inbounds nuw i8, ptr %0, i64 96
  %35 = load ptr, ptr %34, align 8, !tbaa !29
  tail call void %35(ptr noundef nonnull %28) #4
  br label %36

36:                                               ; preds = %33, %29
  store ptr null, ptr %27, align 8, !tbaa !24
  store i32 0, ptr %1, align 8, !tbaa !27
  store i32 0, ptr %30, align 8, !tbaa !28
  br label %37

37:                                               ; preds = %25, %36, %4, %12, %6
  %.0 = phi i32 [ %15, %12 ], [ %9, %6 ], [ 2, %4 ], [ 0, %36 ], [ 0, %25 ]
  ret i32 %.0
}